; Function Attrs: noinline norecurse nounwind uwtable
define internal void @_ZN5faiss13fvecs2bitvecsEPKfPhmm.omp_outlined(ptr noalias noundef readonly captures(none) %0, ptr noalias readnone captures(none) %1, ptr noundef nonnull readonly align 8 captures(none) dereferenceable(8) %2, ptr noundef nonnull readonly align 8 captures(none) dereferenceable(8) %3, ptr noundef nonnull readonly align 8 captures(none) dereferenceable(8) %4, ptr noundef nonnull readonly align 8 captures(none) dereferenceable(8) %5, ptr noundef nonnull readonly align 8 captures(none) dereferenceable(8) %6) #4 {
  %8 = alloca i64, align 8
  %9 = alloca i64, align 8
  %10 = alloca i64, align 8
  %11 = alloca i32, align 4
  %12 = load i64, ptr %2, align 8, !tbaa !4
  %.not = icmp eq i64 %12, 0
  br i1 %.not, label %47, label %13

13:                                               ; preds = %7
  %14 = add i64 %12, -1
  call void @llvm.lifetime.start.p0(i64 8, ptr nonnull %8) #5
  store i64 0, ptr %8, align 8, !tbaa !4
  call void @llvm.lifetime.start.p0(i64 8, ptr nonnull %9) #5
  store i64 %14, ptr %9, align 8, !tbaa !4
  call void @llvm.lifetime.start.p0(i64 8, ptr nonnull %10) #5
  store i64 1, ptr %10, align 8, !tbaa !4
  call void @llvm.lifetime.start.p0(i64 4, ptr nonnull %11) #5
  store i32 0, ptr %11, align 4, !tbaa !10
  %15 = load i32, ptr %0, align 4, !tbaa !10
  call void @__kmpc_for_static_init_8u(ptr nonnull @1, i32 %15, i32 34, ptr nonnull %11, ptr nonnull %8, ptr nonnull %9, ptr nonnull %10, i64 1, i64 1)
  %16 = load i64, ptr %9, align 8, !tbaa !4
  %17 = call i64 @llvm.umin.i64(i64 %16, i64 %14)
  store i64 %17, ptr %9, align 8, !tbaa !4
  %18 = load i64, ptr %8, align 8, !tbaa !4
  %19 = icmp ugt i64 %18, %17
  %20 = load i64, ptr %4, align 8
  %21 = icmp eq i64 %20, 0
  %or.cond = select i1 %19, i1 true, i1 %21
  br i1 %or.cond, label %._crit_edge, label %.lr.ph.split

.lr.ph.splitthread-pre-split:                     ; preds = %_ZN5faiss11fvec2bitvecEPKfPhm.exit
  %.pr = load i64, ptr %4, align 8, !tbaa !4
  br label %.lr.ph.split

.lr.ph.split:                                     ; preds = %13, %.lr.ph.splitthread-pre-split
  %22 = phi i64 [ %.pr, %.lr.ph.splitthread-pre-split ], [ %20, %13 ]
  %23 = phi i64 [ %43, %.lr.ph.splitthread-pre-split ], [ %17, %13 ]
  %.016 = phi i64 [ %44, %.lr.ph.splitthread-pre-split ], [ %18, %13 ]
  %24 = load ptr, ptr %3, align 8, !tbaa !19
  %25 = mul i64 %22, %.016
  %26 = getelementptr inbounds nuw float, ptr %24, i64 %25
  %27 = load ptr, ptr %5, align 8, !tbaa !22
  %28 = load i64, ptr %6, align 8, !tbaa !4
  call void @llvm.experimental.noalias.scope.decl(metadata !24)
  call void @llvm.experimental.noalias.scope.decl(metadata !27)
  %.not32.i = icmp eq i64 %22, 0
  br i1 %.not32.i, label %_ZN5faiss11fvec2bitvecEPKfPhm.exit, label %.lr.ph30.i

.lr.ph30.i:                                       ; preds = %.lr.ph.split
  %29 = mul nsw i64 %28, %.016
  %30 = getelementptr inbounds i8, ptr %27, i64 %29
  %31 = trunc i64 %22 to i32
  br label %32

32:                                               ; preds = %._crit_edge.i, %.lr.ph30.i
  %indvars.iv33.i = phi i64 [ 0, %.lr.ph30.i ], [ %indvars.iv.next34.i, %._crit_edge.i ]
  %.01828.i = phi ptr [ %30, %.lr.ph30.i ], [ %37, %._crit_edge.i ]
  %indvars.iv.next34.i = add nuw nsw i64 %indvars.iv33.i, 8
  %.not.i = icmp ult i64 %22, %indvars.iv.next34.i
  %33 = trunc nuw nsw i64 %indvars.iv33.i to i32
  %34 = sub i32 %31, %33
  %35 = select i1 %.not.i, i32 %34, i32 8
  %36 = icmp sgt i32 %35, 0
  br i1 %36, label %.lr.ph.preheader.i, label %._crit_edge.i

.lr.ph.preheader.i:                               ; preds = %32
  %wide.trip.count.i = zext nneg i32 %35 to i64
  %invariant.gep.i = getelementptr inbounds nuw float, ptr %26, i64 %indvars.iv33.i
  br label %.lr.ph.i

._crit_edge.i:                                    ; preds = %.lr.ph.i, %32
  %.020.lcssa.i = phi i8 [ 0, %32 ], [ %.1.i, %.lr.ph.i ]
  store i8 %.020.lcssa.i, ptr %.01828.i, align 1, !tbaa !14, !alias.scope !27, !noalias !24
  %37 = getelementptr inbounds nuw i8, ptr %.01828.i, i64 1
  %38 = icmp ugt i64 %22, %indvars.iv.next34.i
  br i1 %38, label %32, label %_ZN5faiss11fvec2bitvecEPKfPhm.exit.loopexit, !llvm.loop !15

.lr.ph.i:                                         ; preds = %.lr.ph.i, %.lr.ph.preheader.i
  %indvars.iv.i = phi i64 [ 0, %.lr.ph.preheader.i ], [ %indvars.iv.next.i, %.lr.ph.i ]
  %.01925.i = phi i8 [ 1, %.lr.ph.preheader.i ], [ %42, %.lr.ph.i ]
  %.02024.i = phi i8 [ 0, %.lr.ph.preheader.i ], [ %.1.i, %.lr.ph.i ]
  %gep.i = getelementptr inbounds nuw float, ptr %invariant.gep.i, i64 %indvars.iv.i
  %39 = load float, ptr %gep.i, align 4, !tbaa !16, !alias.scope !24, !noalias !27
  %40 = fcmp ult float %39, 0.000000e+00
  %41 = select i1 %40, i8 0, i8 %.01925.i
  %.1.i = or i8 %41, %.02024.i
  %42 = shl i8 %.01925.i, 1
  %indvars.iv.next.i = add nuw nsw i64 %indvars.iv.i, 1
  %exitcond.not.i = icmp eq i64 %indvars.iv.next.i, %wide.trip.count.i
  br i1 %exitcond.not.i, label %._crit_edge.i, label %.lr.ph.i, !llvm.loop !18

_ZN5faiss11fvec2bitvecEPKfPhm.exit.loopexit:      ; preds = %._crit_edge.i
  %.pre = load i64, ptr %9, align 8, !tbaa !4
  br label %_ZN5faiss11fvec2bitvecEPKfPhm.exit

_ZN5faiss11fvec2bitvecEPKfPhm.exit:               ; preds = %_ZN5faiss11fvec2bitvecEPKfPhm.exit.loopexit, %.lr.ph.split
  %43 = phi i64 [ %.pre, %_ZN5faiss11fvec2bitvecEPKfPhm.exit.loopexit ], [ %23, %.lr.ph.split ]
  %44 = add nuw i64 %.016, 1
  %45 = add i64 %43, 1
  %46 = icmp ult i64 %44, %45
  br i1 %46, label %.lr.ph.splitthread-pre-split, label %._crit_edge, !llvm.loop !29

._crit_edge:                                      ; preds = %_ZN5faiss11fvec2bitvecEPKfPhm.exit, %13
  call void @__kmpc_for_static_fini(ptr nonnull @1, i32 %15)
  call void @llvm.lifetime.end.p0(i64 4, ptr nonnull %11) #5
  call void @llvm.lifetime.end.p0(i64 8, ptr nonnull %10) #5
  call void @llvm.lifetime.end.p0(i64 8, ptr nonnull %9) #5
  call void @llvm.lifetime.end.p0(i64 8, ptr nonnull %8) #5
  br label %47

47:                                               ; preds = %._crit_edge, %7
  ret void
}